target datalayout = "e-m:e-p270:32:32-p271:32:32-p272:64:64-i64:64-i128:128-f80:128-n8:16:32:64-S128"
target triple = "x86_64-pc-linux-gnu"

%struct.Object = type { ptr, ptr, ptr, i32, ptr }
%struct.MachineState = type { %struct.Object, ptr, ptr, ptr, i32, ptr, i8, i8, i8, i8, ptr, i8, i8, i8, ptr, ptr, i8, ptr, ptr, ptr, i64, i64, i64, %struct.BootConfiguration, ptr, ptr, ptr, ptr, ptr, ptr, ptr, %struct.CpuTopology, %struct.SmpCache, ptr, ptr }
%struct.BootConfiguration = type { ptr, ptr, i8, i8, ptr, i8, i64, i8, i64, i8, i8 }
%struct.CpuTopology = type { i32, i32, i32, i32, i32, i32, i32, i32, i32, i32 }
%struct.SmpCache = type { [4 x %struct.SmpCacheProperties] }
%struct.SmpCacheProperties = type { i32, i32 }

@current_machine = external global ptr, align 8

; Function Attrs: nounwind sspstrong uwtable
define dso_local i32 @virtio_pci_optimal_num_queues(i32 noundef %0) #0 {
  %2 = alloca i32, align 4
  %3 = alloca i32, align 4
  %4 = alloca i32, align 4
  %5 = alloca i32, align 4
  %6 = alloca i32, align 4
  %7 = alloca i32, align 4
  %8 = alloca i32, align 4
  %9 = alloca i32, align 4
  store i32 %0, ptr %2, align 4
  call void @llvm.lifetime.start.p0(i64 4, ptr %3) #13
  %10 = load ptr, ptr @current_machine, align 8
  %11 = getelementptr inbounds nuw %struct.MachineState, ptr %10, i32 0, i32 31
  %12 = getelementptr inbounds nuw %struct.CpuTopology, ptr %11, i32 0, i32 0
  %13 = load i32, ptr %12, align 8
  store i32 %13, ptr %3, align 4
  call void @llvm.lifetime.start.p0(i64 4, ptr %4) #13
  %14 = load i32, ptr %3, align 4
  store i32 %14, ptr %4, align 4
  call void @llvm.lifetime.start.p0(i64 4, ptr %5) #13
  %15 = load i32, ptr %2, align 4
  %16 = sub i32 2047, %15
  store i32 %16, ptr %5, align 4
  %17 = load i32, ptr %4, align 4
  %18 = load i32, ptr %5, align 4
  %19 = icmp ult i32 %17, %18
  br i1 %19, label %20, label %22

20:                                               ; preds = %1
  %21 = load i32, ptr %4, align 4
  br label %24

22:                                               ; preds = %1
  %23 = load i32, ptr %5, align 4
  br label %24

24:                                               ; preds = %22, %20
  %25 = phi i32 [ %21, %20 ], [ %23, %22 ]
  store i32 %25, ptr %6, align 4
  call void @llvm.lifetime.end.p0(i64 4, ptr %5) #13
  call void @llvm.lifetime.end.p0(i64 4, ptr %4) #13
  %26 = load i32, ptr %6, align 4
  store i32 %26, ptr %3, align 4
  call void @llvm.lifetime.start.p0(i64 4, ptr %7) #13
  %27 = load i32, ptr %3, align 4
  store i32 %27, ptr %7, align 4
  call void @llvm.lifetime.start.p0(i64 4, ptr %8) #13
  %28 = load i32, ptr %2, align 4
  %29 = sub i32 1024, %28
  store i32 %29, ptr %8, align 4
  %30 = load i32, ptr %7, align 4
  %31 = load i32, ptr %8, align 4
  %32 = icmp ult i32 %30, %31
  br i1 %32, label %33, label %35

33:                                               ; preds = %24
  %34 = load i32, ptr %7, align 4
  br label %37

35:                                               ; preds = %24
  %36 = load i32, ptr %8, align 4
  br label %37

37:                                               ; preds = %35, %33
  %38 = phi i32 [ %34, %33 ], [ %36, %35 ]
  store i32 %38, ptr %9, align 4
  call void @llvm.lifetime.end.p0(i64 4, ptr %8) #13
  call void @llvm.lifetime.end.p0(i64 4, ptr %7) #13
  %39 = load i32, ptr %9, align 4
  call void @llvm.lifetime.end.p0(i64 4, ptr %3) #13
  ret i32 %39
}