; Function Attrs: mustprogress nofree norecurse nosync nounwind sspstrong willreturn memory(read, inaccessiblemem: none) uwtable
define dso_local i32 @virtio_pci_optimal_num_queues(i32 noundef %0) local_unnamed_addr #6 {
  %2 = load ptr, ptr @current_machine, align 8
  %3 = getelementptr inbounds nuw i8, ptr %2, i64 304
  %4 = load i32, ptr %3, align 8
  %5 = sub i32 2047, %0
  %6 = tail call i32 @llvm.umin.i32(i32 %4, i32 %5)
  %7 = sub i32 1024, %0
  %8 = tail call i32 @llvm.umin.i32(i32 %6, i32 %7)
  ret i32 %8
}